Certificate:
    Data:
        Version: 3 (0x2)
        Serial Number: 4096 (0x1000)
        Signature Algorithm: sha256WithRSAEncryption
        Issuer: C=US, ST=New York, L=Syracuse, O=Model CA, CN=modelCA.com
        Validity
            Not Before: Oct  8 01:18:20 2019 GMT
            Not After : Oct  7 01:18:20 2020 GMT
        Subject: C=US, ST=New York, O=Bank, CN=bank32.com
        Subject Public Key Info:
            Public Key Algorithm: rsaEncryption
                RSA Public-Key: (2048 bit)
                Modulus:
                    00:ba:f5:56:b2:dc:30:69:4f:79:72:a0:1a:5f:91:
                    8f:72:1b:25:f1:81:a7:32:01:b6:c5:c5:27:ac:f5:
                    fa:bf:da:72:e6:b1:4a:17:96:4a:62:34:96:ad:91:
                    6c:c3:6b:b0:1a:af:cb:a2:21:43:4e:31:17:ac:2e:
                    3d:8b:1b:fd:48:51:2b:5e:6a:1f:ba:10:7a:88:c9:
                    64:b6:4f:93:70:d4:3e:44:d2:9f:07:af:81:aa:80:
                    a0:a2:da:48:eb:ac:21:df:73:c7:0c:20:d1:36:c9:
                    93:95:03:20:f4:fb:0f:b6:6e:68:c2:30:30:e3:27:
                    d8:7d:fe:75:15:af:c5:05:f3:2a:f3:f6:3b:b8:31:
                    e3:7a:c7:d4:e7:7b:e2:fc:a5:20:5d:5c:4d:a6:74:
                    f3:4c:20:1d:7d:d0:f1:d0:1d:9c:94:48:4f:dd:58:
                    65:0b:28:22:01:70:74:34:83:e9:5a:4a:a2:95:e9:
                    e0:c5:de:5b:33:c0:22:ce:00:21:90:4a:97:a1:d8:
                    4d:fc:27:13:92:21:ef:84:fb:72:2e:c4:ff:9b:aa:
                    9a:28:55:4e:1d:93:cc:56:43:fa:14:92:0e:a3:48:
                    f8:5e:1e:12:2b:a2:7e:65:4d:93:e8:48:ae:33:56:
                    39:bc:7d:0d:f9:ad:a2:f6:8e:80:43:1e:d0:67:21:
                    23:4f
                Exponent: 65537 (0x10001)
        X509v3 extensions:
            X509v3 Basic Constraints: 
                CA:FALSE
            Netscape Comment: 
                OpenSSL Generated Certificate
            X509v3 Subject Key Identifier: 
                6A:7C:47:D3:F3:0D:BB:57:96:AD:B0:6F:81:70:79:58:67:2D:CB:A8
            X509v3 Authority Key Identifier: 
                keyid:D5:79:46:1C:99:D6:F4:BE:26:3E:15:70:FD:E5:B8:FC:64:90:14:E5

    Signature Algorithm: sha256WithRSAEncryption
         5e:50:c1:b6:8c:e6:1f:3f:1d:7c:b7:2d:f3:20:e7:89:ba:05:
         3e:6d:9d:b5:e2:e5:e5:d3:3a:88:df:a8:fb:85:5c:49:f0:75:
         3b:86:4c:4a:22:aa:b2:4d:87:60:74:91:bf:d6:5a:4a:19:6f:
         be:5c:a6:8f:03:16:34:5a:eb:ee:48:20:c1:40:58:ce:d6:37:
         0c:1c:ce:d5:8a:67:b1:f5:13:6f:77:26:4a:fa:67:0c:ba:45:
         22:59:56:c7:3d:f4:f3:39:d0:64:f2:d2:5b:31:37:0b:19:c8:
         c1:e2:a2:b8:e5:1b:af:be:81:eb:b4:d8:f8:fa:54:92:f1:1c:
         c3:e0:2e:f8:c6:1e:a1:5e:3f:05:47:b8:39:45:bb:14:36:b7:
         d0:cf:a4:10:8e:24:74:eb:c7:83:e5:19:75:a1:22:c7:e1:06:
         7d:3f:d6:0a:7c:16:f6:d0:fc:57:3f:3e:27:ed:16:9f:1f:9a:
         aa:51:4b:94:aa:33:20:48:38:f9:ae:ee:ac:02:b6:36:aa:5f:
         dc:fb:83:28:d6:79:28:e7:0f:4f:f4:de:8a:4d:d3:70:69:28:
         51:58:00:6c:b3:f0:a0:8e:31:87:a2:5e:f1:36:c7:c1:2e:91:
         bf:d3:8c:5f:b4:b7:67:9b:15:26:57:b0:70:97:01:48:ca:8c:
         73:13:c1:84:58:6e:06:ec:e3:34:3e:31:cd:95:e0:ed:da:94:
         38:7b:aa:fd:64:0c:cf:eb:0b:a5:74:f9:ea:63:db:e1:6d:8c:
         92:47:5f:d5:8c:2c:01:f5:7e:fc:be:bb:ab:d6:db:c5:70:8b:
         12:64:0d:5b:d6:e5:aa:cf:11:ee:d7:04:1f:2a:dc:f1:05:47:
         60:00:36:a1:7b:0d:f8:e9:ad:d2:a0:97:62:9e:fc:8d:aa:67:
         ab:00:11:c4:6a:a9:3d:08:2a:1c:f6:14:75:4d:dc:c9:52:ee:
         0d:11:05:52:35:ee:12:51:cf:66:dc:f6:46:db:5d:3c:10:5f:
         fa:cd:91:bb:77:0d:e8:e7:3a:76:81:ac:b9:bb:1c:a6:b4:51:
         08:4d:84:e7:2f:50:4a:0c:ed:81:72:96:c3:c5:36:e3:46:c5:
         1e:1f:da:cf:0a:71:06:e0:7e:e2:d7:b5:d0:2a:17:46:18:1e:
         3b:e6:36:0d:77:c1:4c:e3:b5:eb:72:c3:af:2d:3c:e2:e6:0f:
         d6:45:48:96:36:41:d0:6c:a2:0e:99:14:1e:bc:35:4f:2f:21:
         0f:e3:53:40:07:ee:07:8a:b0:ef:49:54:28:33:69:7b:ff:af:
         98:63:f1:e5:79:4f:7b:56:40:47:48:ff:97:f4:61:47:f0:c8:
         e5:17:4b:83:ba:ad:b9:39
-----BEGIN CERTIFICATE-----
MIIElzCCAn+gAwIBAgICEAAwDQYJKoZIhvcNAQELBQAwXDELMAkGA1UEBhMCVVMx
ETAPBgNVBAgMCE5ldyBZb3JrMREwDwYDVQQHDAhTeXJhY3VzZTERMA8GA1UECgwI
TW9kZWwgQ0ExFDASBgNVBAMMC21vZGVsQ0EuY29tMB4XDTE5MTAwODAxMTgyMFoX
DTIwMTAwNzAxMTgyMFowRDELMAkGA1UEBhMCVVMxETAPBgNVBAgMCE5ldyBZb3Jr
MQ0wCwYDVQQKDARCYW5rMRMwEQYDVQQDDApiYW5rMzIuY29tMIIBIjANBgkqhkiG
9w0BAQEFAAOCAQ8AMIIBCgKCAQEAuvVWstwwaU95cqAaX5GPchsl8YGnMgG2xcUn
rPX6v9py5rFKF5ZKYjSWrZFsw2uwGq/LoiFDTjEXrC49ixv9SFErXmofuhB6iMlk
tk+TcNQ+RNKfB6+BqoCgotpI66wh33PHDCDRNsmTlQMg9PsPtm5owjAw4yfYff51
Fa/FBfMq8/Y7uDHjesfU53vi/KUgXVxNpnTzTCAdfdDx0B2clEhP3VhlCygiAXB0
NIPpWkqilengxd5bM8AizgAhkEqXodhN/CcTkiHvhPtyLsT/m6qaKFVOHZPMVkP6
FJIOo0j4Xh4SK6J+ZU2T6EiuM1Y5vH0N+a2i9o6AQx7QZyEjTwIDAQABo3sweTAJ
BgNVHRMEAjAAMCwGCWCGSAGG+EIBDQQfFh1PcGVuU1NMIEdlbmVyYXRlZCBDZXJ0
aWZpY2F0ZTAdBgNVHQ4EFgQUanxH0/MNu1eWrbBvgXB5WGcty6gwHwYDVR0jBBgw
FoAU1XlGHJnW9L4mPhVw/eW4/GSQFOUwDQYJKoZIhvcNAQELBQADggIBAF5QwbaM
5h8/HXy3LfMg54m6BT5tnbXi5eXTOojfqPuFXEnwdTuGTEoiqrJNh2B0kb/WWkoZ
b75cpo8DFjRa6+5IIMFAWM7WNwwcztWKZ7H1E293Jkr6Zwy6RSJZVsc99PM50GTy
0lsxNwsZyMHiorjlG6++geu02Pj6VJLxHMPgLvjGHqFePwVHuDlFuxQ2t9DPpBCO
JHTrx4PlGXWhIsfhBn0/1gp8FvbQ/Fc/PiftFp8fmqpRS5SqMyBIOPmu7qwCtjaq
X9z7gyjWeSjnD0/03opN03BpKFFYAGyz8KCOMYeiXvE2x8Eukb/TjF+0t2ebFSZX
sHCXAUjKjHMTwYRYbgbs4zQ+Mc2V4O3alDh7qv1kDM/rC6V0+epj2+FtjJJHX9WM
LAH1fvy+u6vW28VwixJkDVvW5arPEe7XBB8q3PEFR2AANqF7DfjprdKgl2Ke/I2q
Z6sAEcRqqT0IKhz2FHVN3MlS7g0RBVI17hJRz2bc9kbbXTwQX/rNkbt3DejnOnaB
rLm7HKa0UQhNhOcvUEoM7YFylsPFNuNGxR4f2s8KcQbgfuLXtdAqF0YYHjvmNg13
wUzjtetyw68tPOLmD9ZFSJY2QdBsog6ZFB68NU8vIQ/jU0AH7geKsO9JVCgzaXv/
r5hj8eV5T3tWQEdI/5f0YUfwyOUXS4O6rbk5
-----END CERTIFICATE-----
